(lp0
(lp1
F701066.5
aF722066.5
aF748066.5
aF769066.5
aF804066.5
aF861066.5
aF939066.5
aF968066.5
aF994066.5
aF1047066.5
aF1102066.5
aF1160066.5
aF1224066.5
aF1258066.5
aF1286066.5
aF1350066.5
aF1437066.5
aF1507066.5
aF1534066.5
aF1561066.5
aF1594066.5
aF1624066.5
aF1657066.5
aF1816066.5
aF1832066.5
aF1852066.5
aF1895066.5
aF1914066.5
aF1934066.5
aF1972066.5
aF1990066.5
aF2007066.5
aF2034066.5
aF2060066.5
aF2213066.5
aF2227066.5
aF2243066.5
aF2261066.5
aF2317066.5
aF2341066.5
aF2371066.5
aF2398066.5
aF2472066.5
aF2520066.5
aF2552066.5
aF2579066.5
aF2641066.5
aF2666066.5
aF2698066.5
aF2723066.5
aF2771066.5
aF2794066.5
aF2821066.5
aF2854066.5
aF3006066.5
aF3020066.5
aF3037066.5
aF3078066.5
aF3096066.5
aF3117066.5
aF3173066.5
aF3191066.5
aF3221066.5
aF3244066.5
aF3270066.5
aF3313066.5
aF3362066.5
aF3523066.5
aF3538066.5
aF3580066.5
aF3604066.5
aF3626066.5
aF3660066.5
aF3707066.5
aF3735066.5
aF3766066.5
aF3802066.5
aF3834066.5
aF3890066.5
aF3925066.5
aF3970066.5
aF3992066.5
aF4023066.5
aF4049066.5
aF4081066.5
aF4225066.5
aF4273066.5
aF4287066.5
aF4306066.5
aF4348066.5
aF4368066.5
aF4389066.5
aF4411066.5
aF4451066.5
aF4469066.5
aF4486066.5
aF4505066.5
aF4525066.5
aF4553066.5
aF4599066.5
aF4619066.5
aF4638066.5
aF4745066.5
aF4910066.5
aF4923066.5
aF4958066.5
aF4969066.5
aF4983066.5
aF4999066.5
aF5020066.5
aF5059066.5
aF5198066.5
aF5214066.5
aF5244066.5
aF5266066.5
aF5284066.5
aF5334066.5
aF5358066.5
aF5390066.5
aF5443066.5
aF5462066.5
aF5482066.5
aF5505066.5
aF5553066.5
aF5570066.5
aF5590066.5
aF5630066.5
aF5648066.5
aF5820066.5
aF5842066.5
aF5859066.5
aF5883066.5
aF5913066.5
aF5935066.5
aF5971066.5
aF5990066.5
aF6006066.5
aF6030066.5
aF6077066.5
aF6102066.5
aF6122066.5
aF6159066.5
aF6179066.5
aF6231066.5
aF6248066.5
aF6265066.5
aF6319066.5
aF6338066.5
aF6355066.5
aF6424066.5
aF6447066.5
aF6472066.5
aF6505066.5
aF6648066.5
aF6664066.5
aF6681066.5
aF6701066.5
aF6745066.5
aF6766066.5
aF6791066.5
aF6822066.5
aF6843066.5
aF6861066.5
aF6896066.5
aF6918066.5
aF6977066.5
aF6997066.5
aF7047066.5
aF7084066.5
aF7107066.5
aF7136066.5
aF7163066.5
aF7215066.5
aF7246066.5
aF7281066.5
aF7464066.5
aF7495066.5
aF7512066.5
aF7537066.5
aF7593066.5
aF7615066.5
aF7638066.5
aF7657066.5
aF7698066.5
aF7723066.5
aF7755066.5
aF7798066.5
aF7845066.5
aF7863066.5
aF7880066.5
aF7900066.5
aF7951066.5
aF7977066.5
aF8122066.5
aF8137066.5
aF8163066.5
aF8185066.5
aF8221066.5
aF8237066.5
aF8255066.5
aF8293066.5
aF8311066.5
aF8326066.5
aF8344066.5
aF8395066.5
aF8553066.5
aF8570066.5
aF8589066.5
aF8628066.5
aF8647066.5
aF8696066.5
aF8714066.5
aF8741066.5
aF8771066.5
aF8788066.5
aF8834066.5
aF8854066.5
aF8873066.5
aF8901066.5
aF9068066.5
aF9121066.5
aF9148066.5
aF9171066.5
aF9195066.5
aF9242066.5
aF9391066.5
aF9444066.5
aF9460066.5
aF9478066.5
aF9501066.5
aF9520066.5
aF9539066.5
aF9582066.5
aF9604066.5
aF9648066.5
aF9672066.5
aF9734066.5
aF9752066.5
aF9772066.5
aF9931066.5
aF9955066.5
aF9979066.5
aF10003066.5
aF10053066.5
aF10075066.5
aF10101066.5
aF10144066.5
aF10166066.5
aF10193066.5
aF10222066.5
aF10245066.5
aF10411066.5
aF10426066.5
aF10441066.5
aF10460066.5
aF10479066.5
aF10515066.5
aF10537066.5
aF10554066.5
aF10575066.5
aF10610066.5
aF10646066.5
aF10664066.5
aF10681066.5
aF10697066.5
aF10735066.5
aF10758066.5
aF10779066.5
aF10802066.5
aF10821066.5
aF10911066.5
aF10930066.5
aF10949066.5
aF10978066.5
aF10997066.5
aF11023066.5
aF11050066.5
aF11255066.5
aF11305066.5
aF11331066.5
aF11361066.5
aF11389066.5
aF11415066.5
aF11437066.5
aF11488066.5
aF11512066.5
aF11544066.5
aF11572066.5
aF11607066.5
aF11660066.5
aF11683066.5
aF11708066.5
aF11775066.5
aF11819066.5
aF11845066.5
aF11885066.5
aF11902066.5
aF11924066.5
aF11944066.5
aF11968066.5
aF12025066.5
aF12174066.5
aF12191066.5
aF12213066.5
aF12251066.5
aa(lp2
F709016.5
aF730016.5
aF758416.5
aF777916.5
aF814116.5
aF867816.5
aF945966.5
aF975416.5
aF1001116.5
aF1055483.1666666667
aF1114383.1666666667
aF1166233.1666666667
aF1229783.1666666667
aF1264083.1666666667
aF1293883.1666666667
aF1356083.1666666667
aF1455383.1666666667
aF1513683.1666666667
aF1541433.1666666667
aF1567833.1666666667
aF1600083.1666666667
aF1630833.1666666667
aF1662933.1666666667
aF1823566.5
aF1839116.5
aF1862716.5
aF1904366.5
aF1920216.5
aF1941566.5
aF1980016.5
aF1997116.5
aF2015616.5
aF2045166.5
aF2066816.5
aF2220566.5
aF2234416.5
aF2249516.5
aF2276066.5
aF2329366.5
aF2347216.5
aF2377516.5
aF2416666.5
aF2480916.5
aF2528016.5
aF2559266.5
aF2607116.5
aF2647666.5
aF2673416.5
aF2704666.5
aF2734616.5
aF2778116.5
aF2801116.5
aF2828716.5
aF2866666.5
aF3012066.5
aF3027116.5
aF3046966.5
aF3083766.5
aF3100416.5
aF3130116.5
aF3179066.5
aF3196916.5
aF3229616.5
aF3250966.5
aF3276666.5
aF3319816.5
aF3373616.5
aF3531766.5
aF3544816.5
aF3590716.5
aF3612166.5
aF3631616.5
aF3669666.5
aF3714416.5
aF3741816.5
aF3773716.5
aF3809866.5
aF3839316.5
aF3896066.5
aF3932866.5
aF3977116.5
aF4000016.5
aF4029666.5
aF4056116.5
aF4087216.5
aF4234383.166666667
aF4278933.166666667
aF4294133.166666667
aF4315233.166666667
aF4354983.166666667
aF4374683.166666667
aF4396583.166666667
aF4418133.166666667
aF4457383.166666667
aF4475083.166666667
aF4492533.166666667
aF4512133.166666667
aF4530783.166666667
aF4558183.166666667
aF4606283.166666667
aF4625833.166666667
aF4649633.166666667
aF4751233.166666667
aF4918183.166666667
aF4931783.166666667
aF4965733.166666667
aF4977333.166666667
aF4990883.166666667
aF5004933.166666667
aF5028783.166666667
aF5068683.166666667
aF5207083.166666667
aF5222783.166666667
aF5253533.166666667
aF5272683.166666667
aF5296533.166666667
aF5340983.166666667
aF5364533.166666667
aF5403433.166666667
aF5450733.166666667
aF5470783.166666667
aF5490183.166666667
aF5520383.166666667
aF5560733.166666667
aF5576983.166666667
aF5596533.166666667
aF5630683.166666667
aF5659183.166666667
aF5826383.166666667
aF5848833.166666667
aF5866733.166666667
aF5890733.166666667
aF5920883.166666667
aF5944533.166666667
aF5977983.166666667
aF5997733.166666667
aF6013583.166666667
aF6039999.833333333
aF6083683.166666667
aF6109883.166666667
aF6128833.166666667
aF6171683.166666667
aF6187033.166666667
aF6239183.166666667
aF6254383.166666667
aF6272733.166666667
aF6327183.166666667
aF6344533.166666667
aF6367083.166666667
aF6430383.166666667
aF6454733.166666667
aF6478533.166666667
aF6512283.166666667
aF6655583.166666667
aF6671133.166666667
aF6687833.166666667
aF6708133.166666667
aF6752583.166666667
aF6772683.166666667
aF6796483.166666667
aF6828666.5
aF6848466.5
aF6869616.5
aF6903866.5
aF6931416.5
aF6986666.5
aF7003966.5
aF7054266.5
aF7090366.5
aF7115466.5
aF7142966.5
aF7172516.5
aF7223466.5
aF7254016.5
aF7286916.5
aF7472316.5
aF7503016.5
aF7520016.5
aF7551616.5
aF7607616.5
aF7624366.5
aF7645116.5
aF7666516.5
aF7704816.5
aF7731316.5
aF7764683.166666667
aF7813516.5
aF7851966.5
aF7869216.5
aF7887866.5
aF7914166.5
aF7957666.5
aF7986666.5
aF8131216.5
aF8144866.5
aF8170416.5
aF8193016.5
aF8228716.5
aF8243216.5
aF8263766.5
aF8301766.5
aF8317516.5
aF8338516.5
aF8351416.5
aF8405266.5
aF8559966.5
aF8575916.5
aF8599266.5
aF8634366.5
aF8657266.5
aF8702516.5
aF8722616.5
aF8745116.5
aF8777216.5
aF8796616.5
aF8845916.5
aF8861416.5
aF8884766.5
aF8909616.5
aF9081266.5
aF9126316.5
aF9156916.5
aF9178566.5
aF9207516.5
aF9248666.5
aF9401899.833333334
aF9455216.5
aF9466649.833333334
aF9484999.833333334
aF9508699.833333334
aF9527349.833333334
aF9550299.833333334
aF9590616.5
aF9613899.833333334
aF9655666.5
aF9684099.833333334
aF9741066.5
aF9759616.5
aF9782399.833333334
aF9939166.5
aF9961666.5
aF9985366.5
aF10012216.5
aF10062216.5
aF10083466.5
aF10109166.5
aF10152166.5
aF10173116.5
aF10203416.5
aF10229266.5
aF10253616.5
aF10418116.5
aF10433116.5
aF10447216.5
aF10467866.5
aF10486716.5
aF10522866.5
aF10543516.5
aF10561566.5
aF10583016.5
aF10616516.5
aF10651316.5
aF10670816.5
aF10687966.5
aF10706516.5
aF10741216.5
aF10766016.5
aF10785066.5
aF10809866.5
aF10830666.5
aF10925016.5
aF10935916.5
aF10957316.5
aF10984966.5
aF11005616.5
aF11030266.5
aF11056966.5
aF11261666.5
aF11313316.5
aF11340216.5
aF11368416.5
aF11396116.5
aF11422416.5
aF11446666.5
aF11495866.5
aF11520316.5
aF11551116.5
aF11579116.5
aF11617116.5
aF11667866.5
aF11689366.5
aF11717666.5
aF11792316.5
aF11841416.5
aF11856016.5
aF11894216.5
aF11909116.5
aF11930366.5
aF11951416.5
aF11974516.5
aF12034516.5
aF12188316.5
aF12199916.5
aF12219366.5
aF12260066.5
aa(lp3
I5527933
aI5527934
aI5527935
aI5527936
aI5527937
aI5527938
aI5527939
aI5527940
aI5527941
aI5527942
aI5527943
aI5527944
aI5527945
aI5527946
aI5527947
aI5527948
aI5527949
aI5527950
aI5527951
aI5527952
aI5527953
aI5527954
aI5527955
aI5527956
aI5527957
aI5527958
aI5527959
aI5527960
aI5527961
aI5527962
aI5527963
aI5527964
aI5527965
aI5527966
aI5528060
aI5528061
aI5528062
aI5528063
aI5528064
aI5528065
aI5528066
aI5528067
aI5528068
aI5528069
aI5528070
aI5528071
aI5528072
aI5528073
aI5528074
aI5528075
aI5528076
aI5528077
aI5528078
aI5528079
aI5528080
aI5528081
aI5528082
aI5528083
aI5528084
aI5528085
aI5528086
aI5528087
aI5528088
aI5528089
aI5528090
aI5528091
aI5528092
aI5528131
aI5528132
aI5528133
aI5528134
aI5528135
aI5528136
aI5528137
aI5528138
aI5528139
aI5528140
aI5528141
aI5528142
aI5528143
aI5528144
aI5528145
aI5528146
aI5528147
aI5528148
aI5528149
aI5528150
aI5528151
aI5528152
aI5528153
aI5528154
aI5528155
aI5528156
aI5528157
aI5528158
aI5528159
aI5528160
aI5528161
aI5528162
aI5528163
aI5528164
aI5528165
aI5528166
aI5528214
aI5528215
aI5528216
aI5528217
aI5528218
aI5528219
aI5528220
aI5528221
aI5528222
aI5528223
aI5528224
aI5528225
aI5528226
aI5528227
aI5528228
aI5528229
aI5528230
aI5528231
aI5528232
aI5528233
aI5528234
aI5528235
aI5528236
aI5528237
aI5528238
aI5528167
aI5528168
aI5528169
aI5528170
aI5528171
aI5528172
aI5528173
aI5528174
aI5528175
aI5528176
aI5528177
aI5528178
aI5528179
aI5528180
aI5528181
aI5528182
aI5528183
aI5528184
aI5528185
aI5528186
aI5528187
aI5528188
aI5528189
aI5528190
aI5528191
aI5528192
aI5528193
aI5528194
aI5528195
aI5528196
aI5528197
aI5528198
aI5528199
aI5528200
aI5528201
aI5528202
aI5528203
aI5528204
aI5528205
aI5528206
aI5528207
aI5528208
aI5528209
aI5528210
aI5528211
aI5528212
aI5528213
aI5528001
aI5528002
aI5528003
aI5528004
aI5528005
aI5528006
aI5528007
aI5528008
aI5528009
aI5528010
aI5528011
aI5528012
aI5528013
aI5528014
aI5528015
aI5528016
aI5528017
aI5528018
aI5528019
aI5528020
aI5528021
aI5528022
aI5528023
aI5528024
aI5528025
aI5528026
aI5528027
aI5528028
aI5528029
aI5528030
aI5527967
aI5527968
aI5527969
aI5527970
aI5527971
aI5527972
aI5527973
aI5527974
aI5527975
aI5527976
aI5527977
aI5527978
aI5527979
aI5527980
aI5527981
aI5527982
aI5527983
aI5527984
aI5527985
aI5527986
aI5527987
aI5527988
aI5527989
aI5527990
aI5527991
aI5527992
aI5527993
aI5527994
aI5527995
aI5527996
aI5527997
aI5527998
aI5527999
aI5528000
aI5528093
aI5528094
aI5528095
aI5528096
aI5528097
aI5528098
aI5528099
aI5528100
aI5528101
aI5528102
aI5528103
aI5528104
aI5528105
aI5528106
aI5528107
aI5528108
aI5528109
aI5528110
aI5528111
aI5528112
aI5528113
aI5528114
aI5528115
aI5528116
aI5528117
aI5528118
aI5528119
aI5528120
aI5528121
aI5528122
aI5528123
aI5528124
aI5528125
aI5528126
aI5528127
aI5528128
aI5528129
aI5528130
aI5528031
aI5528032
aI5528033
aI5528034
aI5528035
aI5528036
aI5528037
aI5528038
aI5528039
aI5528040
aI5528041
aI5528042
aI5528043
aI5528044
aI5528045
aI5528046
aI5528047
aI5528048
aI5528049
aI5528050
aI5528051
aI5528052
aI5528053
aI5528054
aI5528055
aI5528056
aI5528057
aI5528058
aa.