(lp0
(lp1
F484683.1666666667
aF498683.1666666667
aF514683.1666666667
aF541683.1666666667
aF565683.1666666667
aF600683.1666666667
aF612683.1666666667
aF654683.1666666667
aF672683.1666666667
aF698683.1666666667
aF724683.1666666667
aF753683.1666666667
aF772683.1666666667
aF792683.1666666667
aF938683.1666666667
aF958683.1666666667
aF972683.1666666667
aF991683.1666666667
aF1038683.1666666667
aF1055683.1666666667
aF1107683.1666666667
aF1157683.1666666667
aF1185683.1666666667
aF1214683.1666666667
aF1273683.1666666667
aF1318683.1666666667
aF1345683.1666666667
aF1372683.1666666667
aF1407683.1666666667
aF1455683.1666666667
aF1483683.1666666667
aF1519683.1666666667
aF1573683.1666666667
aF1604683.1666666667
aF1665683.1666666667
aF1680683.1666666667
aF1697683.1666666667
aF1716683.1666666667
aF1739683.1666666667
aF1914683.1666666667
aF1935683.1666666667
aF1958683.1666666667
aF1981683.1666666667
aF2014683.1666666667
aF2052683.1666666667
aF2074683.1666666667
aF2098683.166666667
aF2121683.166666667
aF2149683.166666667
aF2185683.166666667
aF2226683.166666667
aF2244683.166666667
aF2271683.166666667
aF2414683.166666667
aF2428683.166666667
aF2441683.166666667
aF2458683.166666667
aF2476683.166666667
aF2532683.166666667
aF2554683.166666667
aF2587683.166666667
aF2641683.166666667
aF2671683.166666667
aF2699683.166666667
aF2722683.166666667
aF2808683.166666667
aF2863683.166666667
aF2900683.166666667
aF2970683.166666667
aF3019683.166666667
aF3046683.166666667
aF3074683.166666667
aF3114683.166666667
aF3164683.166666667
aF3186683.166666667
aF3345683.166666667
aF3364683.166666667
aF3386683.166666667
aF3410683.166666667
aF3431683.166666667
aF3464683.166666667
aF3486683.166666667
aF3510683.166666667
aF3534683.166666667
aF3566683.166666667
aF3620683.166666667
aF3644683.166666667
aF3670683.166666667
aF3695683.166666667
aF3730683.166666667
aF3768683.166666667
aF3812683.166666667
aF3859683.166666667
aF3935683.166666667
aF4093683.166666667
aF4106683.166666667
aF4151683.166666667
aF4164683.166666667
aF4179683.166666667
aF4210683.166666667
aF4245683.166666667
aF4259683.166666667
aF4424683.166666667
aF4437683.166666667
aF4457683.166666667
aF4517683.166666667
aF4573683.166666667
aF4619683.166666667
aF4643683.166666667
aF4667683.166666667
aF4693683.166666667
aF4851683.166666667
aF5000683.166666667
aF5021683.166666667
aF5035683.166666667
aF5070683.166666667
aF5085683.166666667
aF5102683.166666667
aF5120683.166666667
aF5147683.166666667
aF5181683.166666667
aF5193683.166666667
aF5228683.166666667
aF5389683.166666667
aF5409683.166666667
aF5436683.166666667
aF5458683.166666667
aF5483683.166666667
aF5505683.166666667
aF5552683.166666667
aF5605683.166666667
aF5638683.166666667
aF5672683.166666667
aF5703683.166666667
aF5748683.166666667
aF5797683.166666667
aF5849683.166666667
aF5940683.166666667
aF5960683.166666667
aF5994683.166666667
aF6022683.166666667
aF6047683.166666667
aF6085683.166666667
aF6105683.166666667
aF6155683.166666667
aF6196683.166666667
aF6227683.166666667
aF6447683.166666667
aF6474683.166666667
aF6505683.166666667
aF6674683.166666667
aF6717683.166666667
aF6733683.166666667
aF6750683.166666667
aF6775683.166666667
aF6802683.166666667
aF6842683.166666667
aF6861683.166666667
aF6886683.166666667
aF6926683.166666667
aF6960683.166666667
aF6986683.166666667
aF7033683.166666667
aF7058683.166666667
aF7085683.166666667
aF7139683.166666667
aF7174683.166666667
aF7210683.166666667
aF7246683.166666667
aF7397683.166666667
aF7418683.166666667
aF7442683.166666667
aF7467683.166666667
aF7492683.166666667
aF7519683.166666667
aF7567683.166666667
aF7590683.166666667
aF7612683.166666667
aF7642683.166666667
aF7664683.166666667
aF7688683.166666667
aF7733683.166666667
aF7754683.166666667
aF7783683.166666667
aF7808683.166666667
aF7834683.166666667
aF7860683.166666667
aF7898683.166666667
aF7920683.166666667
aF7945683.166666667
aF7967683.166666667
aF8050683.166666667
aF8067683.166666667
aF8282683.166666667
aF8331683.166666667
aF8359683.166666667
aF8385683.166666667
aF8420683.166666668
aF8455683.166666668
aF8626683.166666668
aF8640683.166666668
aF8686683.166666668
aF8712683.166666668
aF8765683.166666668
aF8801683.166666668
aF8832683.166666668
aF8865683.166666668
aF8899683.166666668
aF8943683.166666668
aF8970683.166666668
aF8998683.166666668
aF9045683.166666668
aF9069683.166666668
aF9099683.166666668
aF9129683.166666668
aF9161683.166666668
aF9335683.166666668
aF9352683.166666668
aF9369683.166666668
aF9388683.166666668
aF9417683.166666668
aF9435683.166666668
aF9461683.166666668
aF9487683.166666668
aF9506683.166666668
aF9527683.166666668
aF9547683.166666668
aF9601683.166666668
aF9620683.166666668
aF9648683.166666668
aF9674683.166666668
aF9700683.166666668
aF9731683.166666668
aF9760683.166666668
aF9794683.166666668
aF9848683.166666668
aF10017683.166666668
aF10030683.166666668
aF10067683.166666668
aF10087683.166666668
aF10106683.166666668
aF10130683.166666668
aF10164683.166666668
aF10181683.166666668
aF10354683.166666668
aF10375683.166666668
aF10426683.166666668
aF10446683.166666668
aF10472683.166666668
aF10515683.166666668
aF10537683.166666668
aF10563683.166666668
aF10589683.166666668
aF10618683.166666668
aF10653683.166666668
aF10689683.166666668
aF10722683.166666668
aF10753683.166666668
aF10943683.166666668
aF10962683.166666668
aF11000683.166666668
aF11017683.166666668
aF11043683.166666668
aF11065683.166666668
aF11107683.166666668
aF11128683.166666668
aF11173683.166666668
aF11197683.166666668
aF11237683.166666668
aF11264683.166666668
aF11332683.166666668
aF11353683.166666668
aF11388683.166666668
aF11417683.166666668
aF11518683.166666668
aF11549683.166666668
aF11572683.166666668
aF11610683.166666668
aF11698683.166666668
aF11729683.166666668
aF11902683.166666668
aF11919683.166666668
aF11941683.166666668
aF11962683.166666668
aF12011683.166666668
aF12078683.166666668
aF12099683.166666668
aF12124683.166666668
aF12153683.166666668
aF12178683.166666668
aF12205683.166666668
aF12233683.166666668
aF12248683.166666668
aF12261683.166666668
aF12274683.166666668
aF12324683.166666668
aF12354683.166666668
aF12523683.166666668
aF12544683.166666668
aF12569683.166666668
aF12604683.166666668
aF12620683.166666668
aF12652683.166666668
aF12671683.166666668
aF12691683.166666668
aF12728683.166666668
aF12776683.166666668
aF12793683.166666668
aF12812683.166666668
aF12832683.166666668
aF12855683.166666668
aF12884683.166666668
aF12908683.166666668
aF12935683.166666668
aF13161683.166666668
aF13183683.166666668
aF13209683.166666668
aF13261683.166666668
aF13288683.166666668
aF13316683.166666668
aF13356683.166666668
aF13513683.166666668
aF13534683.166666668
aF13553683.166666668
aF13577683.166666668
aF13601683.166666668
aF13620683.166666668
aF13699683.166666668
aF13766683.166666668
aF13796683.166666668
aF13863683.166666668
aF13886683.166666668
aF13912683.166666668
aF13951683.166666668
aF14009683.166666668
aF14041683.166666668
aF14067683.166666668
aF14099683.166666668
aF14124683.166666668
aF14298683.166666668
aF14313683.166666668
aF14330683.166666668
aF14348683.166666668
aF14367683.166666668
aF14411683.166666668
aF14484683.166666668
aF14501683.166666668
aF14542683.166666668
aF14551683.166666668
aF14561683.166666668
aF14569683.166666668
aF14610683.166666668
aF14640683.166666668
aF14676683.166666668
aF14708683.166666668
aF14730683.166666668
aF14764683.166666668
aF14791683.166666668
aF14818683.166666668
aF14853683.166666668
aF14883683.166666668
aF14916683.166666668
aF14942683.166666668
aF14970683.166666668
aF15154683.166666668
aF15223683.166666668
aF15242683.166666668
aF15261683.166666668
aF15284683.166666668
aF15384683.166666668
aF15397683.166666668
aF15411683.166666668
aF15426683.166666668
aF15503683.166666668
aF15560683.166666668
aF15592683.166666668
aF15626683.166666668
aF15659683.166666668
aF15881683.166666668
aF15913683.166666668
aF15958683.166666668
aF15999683.166666668
aF16034683.166666668
aF16063683.166666668
aF16095683.166666668
aF16127683.166666668
aF16167683.166666668
aF16195683.166666668
aF16241683.166666668
aF16280683.166666668
aF16309683.166666668
aF16364683.166666668
aF16388683.166666668
aF16414683.166666668
aF16447683.166666668
aF16478683.166666668
aF16505683.166666668
aF16654683.166666668
aF16671683.166666668
aF16698683.166666668
aF16728683.166666668
aF16753683.166666668
aF16797683.166666668
aF16838683.166666668
aF16854683.166666668
aF16875683.166666668
aa(lp2
F492183.1666666667
aF506933.1666666667
aF524433.1666666666
aF550099.8333333334
aF573199.8333333334
aF608649.8333333334
aF622749.8333333334
aF663849.8333333334
aF681699.8333333334
aF709199.8333333334
aF732349.8333333334
aF762099.8333333334
aF779899.8333333334
aF799899.8333333334
aF946783.1666666666
aF967233.1666666666
aF980183.1666666666
aF1002483.1666666666
aF1047233.1666666666
aF1064233.1666666667
aF1115633.1666666667
aF1167583.1666666667
aF1194083.1666666667
aF1219933.1666666667
aF1281483.1666666667
aF1328283.1666666667
aF1352733.1666666667
aF1381983.1666666667
aF1414883.1666666667
aF1464383.1666666667
aF1492533.1666666667
aF1529133.1666666667
aF1583133.1666666667
aF1619383.1666666667
aF1674683.1666666667
aF1689083.1666666667
aF1705483.1666666667
aF1725233.1666666667
aF1747183.1666666667
aF1922183.1666666667
aF1943333.1666666667
aF1966183.1666666667
aF1992183.1666666667
aF2022183.1666666667
aF2059883.1666666667
aF2082633.1666666667
aF2109049.8333333335
aF2129649.8333333335
aF2156599.8333333335
aF2193799.8333333335
aF2233899.8333333335
aF2252799.8333333335
aF2281749.8333333335
aF2423999.8333333335
aF2437999.8333333335
aF2450399.8333333335
aF2468449.8333333335
aF2495449.8333333335
aF2539449.8333333335
aF2562649.8333333335
aF2598349.8333333335
aF2650849.8333333335
aF2679049.8333333335
aF2707799.8333333335
aF2731699.8333333335
aF2817999.8333333335
aF2874049.8333333335
aF2909399.8333333335
aF2979999.8333333335
aF3027799.8333333335
aF3054949.8333333335
aF3082499.8333333335
aF3135699.8333333335
aF3172049.8333333335
aF3197049.8333333335
aF3356499.8333333335
aF3372499.8333333335
aF3396299.8333333335
aF3419383.1666666665
aF3440533.1666666665
aF3473383.1666666665
aF3494783.1666666665
aF3519083.1666666665
aF3542483.1666666665
aF3576883.1666666665
aF3628483.1666666665
aF3653083.1666666665
aF3679383.1666666665
aF3703333.1666666665
aF3738033.1666666665
aF3776033.1666666665
aF3822133.1666666665
aF3869283.1666666665
aF3947833.1666666665
aF4101333.1666666665
aF4118383.1666666665
aF4161433.1666666665
aF4173533.1666666665
aF4190333.1666666665
aF4218933.166666667
aF4254083.166666667
aF4259833.166666667
aF4433683.166666667
aF4446383.166666667
aF4474483.166666667
aF4527583.166666667
aF4584483.166666667
aF4628383.166666667
aF4651783.166666667
aF4676083.166666667
aF4700883.166666667
aF5000333.166666667
aF5009083.166666667
aF5028433.166666667
aF5043783.166666667
aF5078783.166666667
aF5092283.166666667
aF5110183.166666667
aF5127583.166666667
aF5156083.166666667
aF5190983.166666667
aF5206283.166666667
aF5237083.166666667
aF5397933.166666667
aF5418983.166666667
aF5444633.166666667
aF5465283.166666667
aF5493583.166666667
aF5516933.166666667
aF5563033.166666667
aF5613333.166666667
aF5648283.166666667
aF5683933.166666667
aF5712983.166666667
aF5758583.166666667
aF5806383.166666667
aF5860933.166666667
aF5949083.166666667
aF5970133.166666667
aF6002933.166666667
aF6030183.166666667
aF6056533.166666667
aF6094983.166666667
aF6119183.166666667
aF6165283.166666667
aF6206133.166666667
aF6396433.166666667
aF6455483.166666667
aF6484133.166666667
aF6518283.166666667
aF6686833.166666667
aF6725783.166666667
aF6742233.166666667
aF6758933.166666667
aF6783633.166666667
aF6808083.166666667
aF6851533.166666667
aF6866933.166666667
aF6895383.166666667
aF6934933.166666667
aF6970133.166666667
aF6998533.166666667
aF7044033.166666667
aF7068433.166666667
aF7094383.166666667
aF7147333.166666667
aF7184133.166666667
aF7217433.166666667
aF7255533.166666667
aF7405633.166666667
aF7427833.166666667
aF7451383.166666667
aF7475333.166666667
aF7503783.166666667
aF7530483.166666667
aF7577733.166666667
aF7599683.166666667
aF7620183.166666667
aF7650033.166666667
aF7673983.166666667
aF7696633.166666667
aF7742083.166666667
aF7762033.166666667
aF7792683.166666667
aF7817533.166666667
aF7844733.166666667
aF7869533.166666667
aF7907533.166666667
aF7929833.166666667
aF7952583.166666667
aF7975033.166666667
aF8059983.166666667
aF8085533.166666667
aF8290033.166666667
aF8339333.166666667
aF8367783.166666667
aF8394099.833333334
aF8428949.833333334
aF8468599.833333334
aF8637349.833333334
aF8650449.833333334
aF8694349.833333334
aF8720199.833333334
aF8774399.833333334
aF8808899.833333334
aF8842149.833333334
aF8874249.833333334
aF8907049.833333334
aF8951349.833333334
aF8979699.833333334
aF9010549.833333334
aF9053049.833333334
aF9079899.833333334
aF9109149.833333334
aF9136899.833333334
aF9173099.833333334
aF9343649.833333334
aF9359449.833333334
aF9377799.833333334
aF9395749.833333334
aF9425349.833333334
aF9443199.833333334
aF9469649.833333334
aF9495649.833333334
aF9515099.833333334
aF9536549.833333334
aF9547999.833333334
aF9610549.833333334
aF9628349.833333334
aF9658299.833333334
aF9682199.833333334
aF9710149.833333334
aF9740549.833333334
aF9770299.833333334
aF9800999.833333334
aF9861149.833333334
aF10026999.833333334
aF10039849.833333334
aF10075949.833333334
aF10097899.833333334
aF10114949.833333334
aF10138799.833333334
aF10173549.833333334
aF10193099.833333334
aF10361749.833333334
aF10392199.833333334
aF10433899.833333334
aF10454349.833333334
aF10483499.833333334
aF10523949.833333334
aF10545199.833333334
aF10573299.833333334
aF10597199.833333334
aF10627099.833333334
aF10660749.833333334
aF10698099.833333334
aF10730949.833333334
aF10764049.833333334
aF10952099.833333334
aF10972599.833333334
aF11009549.833333334
aF11025799.833333334
aF11052999.833333334
aF11076199.833333334
aF11115799.833333334
aF11136949.833333334
aF11198149.833333334
aF11205349.833333334
aF11246849.833333334
aF11273549.833333334
aF11339599.833333334
aF11362249.833333334
aF11396349.833333334
aF11425949.833333334
aF11527999.833333334
aF11556599.833333334
aF11581549.833333334
aF11628249.833333334
aF11707849.833333334
aF11740949.833333334
aF11911549.833333334
aF11927799.833333334
aF11948749.833333334
aF11974399.833333334
aF12025199.833333334
aF12085899.833333334
aF12108249.833333334
aF12133399.833333334
aF12162099.833333334
aF12188449.833333334
aF12212749.833333334
aF12239849.833333334
aF12253799.833333334
aF12267549.833333334
aF12279949.833333334
aF12331299.833333334
aF12368949.833333334
aF12532549.833333334
aF12552799.833333334
aF12578249.833333334
aF12613699.833333334
aF12629399.833333334
aF12660649.833333334
aF12680099.833333334
aF12697999.833333334
aF12742199.833333334
aF12785849.833333334
aF12802549.833333334
aF12820949.833333334
aF12841399.833333334
aF12865149.833333334
aF12893849.833333334
aF12914549.833333334
aF12945449.833333334
aF13170699.833333334
aF13191499.833333334
aF13218699.833333334
aF13270399.833333334
aF13297999.833333334
aF13324499.833333334
aF13363599.833333334
aF13522999.833333334
aF13541899.833333334
aF13561649.833333334
aF13587149.833333334
aF13608599.833333334
aF13629549.833333334
aF13708383.166666666
aF13774183.166666666
aF13805833.166666666
aF13872083.166666666
aF13895383.166666666
aF13920033.166666666
aF13965483.166666666
aF14036233.166666666
aF14062683.166666666
aF14075033.166666666
aF14106433.166666666
aF14131583.166666666
aF14306933.166666666
aF14322533.166666666
aF14331583.166666666
aF14357233.166666666
aF14367983.166666666
aF14422633.166666666
aF14493083.166666666
aF14513083.166666666
aF14550933.166666666
aF14558883.166666666
aF14569783.166666666
aF14575833.166666666
aF14618033.166666666
aF14650883.166666666
aF14686433.166666666
aF14716333.166666666
aF14740883.166666666
aF14774433.166666666
aF14801283.166666666
aF14828433.166666666
aF14868233.166666666
aF14894333.166666666
aF14924633.166666666
aF14951233.166666666
aF14979533.166666666
aF15172233.166666666
aF15231483.166666666
aF15252433.166666666
aF15268433.166666666
aF15293983.166666666
aF15390233.166666666
aF15403383.166666666
aF15417683.166666666
aF15432383.166666666
aF15513583.166666666
aF15569983.166666666
aF15599433.166666666
aF15635833.166666666
aF15668833.166666666
aF15889783.166666666
aF15923583.166666666
aF15966033.166666666
aF16007183.166666666
aF16043533.166666666
aF16071933.166666666
aF16104833.166666666
aF16138783.166666666
aF16175183.166666666
aF16206933.166666666
aF16250083.166666666
aF16373983.166666666
aF16327833.166666666
aF16373983.166666666
aF16396033.166666666
aF16422483.166666666
aF16457283.166666666
aF16487683.166666666
aF16515133.166666666
aF16662783.166666666
aF16678583.166666666
aF16706633.166666666
aF16736483.166666666
aF16763883.166666666
aF16808783.166666668
aF16846633.166666668
aF16861733.166666668
aF16882283.166666668
aa(lp3
I6010003
aI6010004
aI6010005
aI6010006
aI6010007
aI6010008
aI6010009
aI6010010
aI6010011
aI6010012
aI6010013
aI6010014
aI6010015
aI6010016
aI6010017
aI6010018
aI6010019
aI6010020
aI6010021
aI6010022
aI6010023
aI6010024
aI6010025
aI6010026
aI6010027
aI6010028
aI6010029
aI6010030
aI6010031
aI6010032
aI6010033
aI6010034
aI6010035
aI6010036
aI6010037
aI6010038
aI6010039
aI6010040
aI6010041
aI6009707
aI6009708
aI6009709
aI6009710
aI6009711
aI6009712
aI6009713
aI6009714
aI6009715
aI6009716
aI6009717
aI6009718
aI6009719
aI6009720
aI6009721
aI6009722
aI6009723
aI6009724
aI6009725
aI6009726
aI6009727
aI6009728
aI6009729
aI6009730
aI6009731
aI6009732
aI6009733
aI6009734
aI6009735
aI6009736
aI6009737
aI6009738
aI6009739
aI6009740
aI6009741
aI6009742
aI6009927
aI6009928
aI6009929
aI6009930
aI6009931
aI6009932
aI6009933
aI6009934
aI6009935
aI6009936
aI6009937
aI6009938
aI6009939
aI6009940
aI6009941
aI6009942
aI6009943
aI6009944
aI6009945
aI6009946
aI6009947
aI6009948
aI6009949
aI6009950
aI6009951
aI6009952
aI6009953
aI6009982
aI6009983
aI6009984
aI6009985
aI6009986
aI6009987
aI6009988
aI6009989
aI6009990
aI6009991
aI6009992
aI6009993
aI6009994
aI6009995
aI6009996
aI6009997
aI6009998
aI6009999
aI6010000
aI6010001
aI6010002
aI6009779
aI6009780
aI6009781
aI6009782
aI6009783
aI6009784
aI6009785
aI6009786
aI6009787
aI6009788
aI6009789
aI6009790
aI6009791
aI6009792
aI6009793
aI6009794
aI6009795
aI6009796
aI6009797
aI6009798
aI6009799
aI6009800
aI6009801
aI6009802
aI6009803
aI6009804
aI6009805
aI6009807
aI6009808
aI6009809
aI6009810
aI6009811
aI6009812
aI6009813
aI6009814
aI6009815
aI6009816
aI6009817
aI6009818
aI6009819
aI6009820
aI6009821
aI6009822
aI6009823
aI6009824
aI6009825
aI6009826
aI6009827
aI6009828
aI6009829
aI6009830
aI6009831
aI6009832
aI6009833
aI6009834
aI6009835
aI6009836
aI6009837
aI6009838
aI6009839
aI6009840
aI6009841
aI6009842
aI6009843
aI6009844
aI6009845
aI6009846
aI6009847
aI6009848
aI6009849
aI6009850
aI6009851
aI6009852
aI6009853
aI6009854
aI6009855
aI6009856
aI6009857
aI6009858
aI6009859
aI6009860
aI6009861
aI6009862
aI6009863
aI6009864
aI6009865
aI6009866
aI6009867
aI6009868
aI6009869
aI6009870
aI6009871
aI6009872
aI6009954
aI6009955
aI6009956
aI6009957
aI6009958
aI6009959
aI6009960
aI6009961
aI6009962
aI6009963
aI6009964
aI6009965
aI6009966
aI6009967
aI6009968
aI6009969
aI6009970
aI6009971
aI6009972
aI6009973
aI6009974
aI6009975
aI6009976
aI6009977
aI6009978
aI6009979
aI6009980
aI6009981
aI6009743
aI6009744
aI6009745
aI6009746
aI6009747
aI6009748
aI6009749
aI6009750
aI6009751
aI6009752
aI6009753
aI6009754
aI6009755
aI6009756
aI6009757
aI6009758
aI6009759
aI6009760
aI6009761
aI6009762
aI6009763
aI6009764
aI6009765
aI6009766
aI6009767
aI6009768
aI6009769
aI6009770
aI6009771
aI6009772
aI6009773
aI6009774
aI6009775
aI6009776
aI6009777
aI6009778
aI6009666
aI6009667
aI6009668
aI6009669
aI6009670
aI6009671
aI6009672
aI6009673
aI6009674
aI6009675
aI6009676
aI6009677
aI6009678
aI6009679
aI6009680
aI6009681
aI6009682
aI6009683
aI6009684
aI6009685
aI6009686
aI6009687
aI6009688
aI6009689
aI6009690
aI6009691
aI6009692
aI6009693
aI6009694
aI6009695
aI6009696
aI6009697
aI6009698
aI6009699
aI6009700
aI6009701
aI6009702
aI6009703
aI6009704
aI6009705
aI6009706
aI6009623
aI6009624
aI6009625
aI6009626
aI6009627
aI6009628
aI6009629
aI6009630
aI6009631
aI6009632
aI6009633
aI6009634
aI6009635
aI6009636
aI6009637
aI6009638
aI6009639
aI6009640
aI6009641
aI6009642
aI6009643
aI6009644
aI6009645
aI6009646
aI6009647
aI6009648
aI6009649
aI6009650
aI6009651
aI6009652
aI6009653
aI6009654
aI6009655
aI6009656
aI6009657
aI6009658
aI6009659
aI6009660
aI6009661
aI6009662
aI6009663
aI6009664
aI6009665
aI6009873
aI6009874
aI6009875
aI6009876
aI6009877
aI6009878
aI6009879
aI6009880
aI6009881
aI6009882
aI6009883
aI6009884
aI6009885
aI6009886
aI6009887
aI6009888
aI6009889
aI6009890
aI6009891
aI6009892
aI6009893
aI6009894
aI6009895
aI6009896
aI6009897
aI6009898
aI6009899
aI6009900
aI6009901
aI6009902
aI6009903
aI6009904
aI6009905
aI6009906
aI6009907
aI6009908
aI6009909
aI6009910
aI6009911
aI6009912
aI6009913
aI6009914
aa.